---
triple:          'arm64-apple-darwin'
binary-path:     trading_sim_profile
relocations:
  - { offset: 0x310D8, size: 0x8, addend: 0x0, symName: __ZStL8__ioinit, symObjAddr: 0x195B6C, symBinAddr: 0x100018004, symSize: 0x0 }
  - { offset: 0x31B2A, size: 0x8, addend: 0x0, symName: __ZN5Order6nextIdE, symObjAddr: 0xA3D8, symBinAddr: 0x100018000, symSize: 0x0 }
  - { offset: 0x3515C, size: 0x8, addend: 0x0, symName: __GLOBAL__sub_I_main.cpp, symObjAddr: 0x9FC0, symBinAddr: 0x100008BC0, symSize: 0x3C }
  - { offset: 0x35495, size: 0x8, addend: 0x0, symName: __ZNSt6thread11_State_implINS_8_InvokerISt5tupleIJZN11AsyncLoggerC4ERKNSt7__cxx1112basic_stringIcSt11char_traitsIcESaIcEEEEUlvE_EEEEE6_M_runEv, symObjAddr: 0x1568, symBinAddr: 0x100001E08, symSize: 0x8 }
  - { offset: 0x354BB, size: 0x8, addend: 0x0, symName: __ZNSt6thread11_State_implINS_8_InvokerISt5tupleIJZN11AsyncLoggerC4ERKNSt7__cxx1112basic_stringIcSt11char_traitsIcESaIcEEEEUlvE_EEEEE6_M_runEv, symObjAddr: 0x1568, symBinAddr: 0x100001E08, symSize: 0x8 }
  - { offset: 0x354DE, size: 0x8, addend: 0x0, symName: __ZNSt6thread11_State_implINS_8_InvokerISt5tupleIJZN11AsyncLoggerC4ERKNSt7__cxx1112basic_stringIcSt11char_traitsIcESaIcEEEEUlvE_EEEEE6_M_runEv, symObjAddr: 0x1568, symBinAddr: 0x100001E08, symSize: 0x8 }
  - { offset: 0x35508, size: 0x8, addend: 0x0, symName: __ZNSt6thread11_State_implINS_8_InvokerISt5tupleIJZN11AsyncLoggerC4ERKNSt7__cxx1112basic_stringIcSt11char_traitsIcESaIcEEEEUlvE_EEEEE6_M_runEv, symObjAddr: 0x1568, symBinAddr: 0x100001E08, symSize: 0x8 }
  - { offset: 0x3552C, size: 0x8, addend: 0x0, symName: __ZNSt6thread11_State_implINS_8_InvokerISt5tupleIJZN11AsyncLoggerC4ERKNSt7__cxx1112basic_stringIcSt11char_traitsIcESaIcEEEEUlvE_EEEEE6_M_runEv, symObjAddr: 0x1568, symBinAddr: 0x100001E08, symSize: 0x8 }
  - { offset: 0x35555, size: 0x8, addend: 0x0, symName: __ZNSt6thread11_State_implINS_8_InvokerISt5tupleIJZN11AsyncLoggerC4ERKNSt7__cxx1112basic_stringIcSt11char_traitsIcESaIcEEEEUlvE_EEEEE6_M_runEv, symObjAddr: 0x1568, symBinAddr: 0x100001E08, symSize: 0x8 }
  - { offset: 0x3558C, size: 0x8, addend: 0x0, symName: __ZNSt6thread11_State_implINS_8_InvokerISt5tupleIJZN11ThreadedSim3runEvEUlvE_EEEEE6_M_runEv, symObjAddr: 0xB04, symBinAddr: 0x1000013A4, symSize: 0xFC }
  - { offset: 0x35ACF, size: 0x8, addend: 0x0, symName: __ZNSt6thread11_State_implINS_8_InvokerISt5tupleIJZN11ThreadedSim3runEvEUlvE0_EEEEE6_M_runEv, symObjAddr: 0x1E40, symBinAddr: 0x1000026E0, symSize: 0x8 }
  - { offset: 0x35AF5, size: 0x8, addend: 0x0, symName: __ZNSt6thread11_State_implINS_8_InvokerISt5tupleIJZN11ThreadedSim3runEvEUlvE0_EEEEE6_M_runEv, symObjAddr: 0x1E40, symBinAddr: 0x1000026E0, symSize: 0x8 }
  - { offset: 0x35B18, size: 0x8, addend: 0x0, symName: __ZNSt6thread11_State_implINS_8_InvokerISt5tupleIJZN11ThreadedSim3runEvEUlvE0_EEEEE6_M_runEv, symObjAddr: 0x1E40, symBinAddr: 0x1000026E0, symSize: 0x8 }
  - { offset: 0x35B42, size: 0x8, addend: 0x0, symName: __ZNSt6thread11_State_implINS_8_InvokerISt5tupleIJZN11ThreadedSim3runEvEUlvE0_EEEEE6_M_runEv, symObjAddr: 0x1E40, symBinAddr: 0x1000026E0, symSize: 0x8 }
  - { offset: 0x35B66, size: 0x8, addend: 0x0, symName: __ZNSt6thread11_State_implINS_8_InvokerISt5tupleIJZN11ThreadedSim3runEvEUlvE0_EEEEE6_M_runEv, symObjAddr: 0x1E40, symBinAddr: 0x1000026E0, symSize: 0x8 }
  - { offset: 0x35B8F, size: 0x8, addend: 0x0, symName: __ZNSt6thread11_State_implINS_8_InvokerISt5tupleIJZN11ThreadedSim3runEvEUlvE0_EEEEE6_M_runEv, symObjAddr: 0x1E40, symBinAddr: 0x1000026E0, symSize: 0x8 }
  - { offset: 0x35BC6, size: 0x8, addend: 0x0, symName: __ZNSt6thread11_State_implINS_8_InvokerISt5tupleIJZN11ThreadedSim3runEvEUlvE1_EEEEE6_M_runEv, symObjAddr: 0x5500, symBinAddr: 0x100005B40, symSize: 0x8 }
  - { offset: 0x35BEC, size: 0x8, addend: 0x0, symName: __ZNSt6thread11_State_implINS_8_InvokerISt5tupleIJZN11ThreadedSim3runEvEUlvE1_EEEEE6_M_runEv, symObjAddr: 0x5500, symBinAddr: 0x100005B40, symSize: 0x8 }
  - { offset: 0x35C0F, size: 0x8, addend: 0x0, symName: __ZNSt6thread11_State_implINS_8_InvokerISt5tupleIJZN11ThreadedSim3runEvEUlvE1_EEEEE6_M_runEv, symObjAddr: 0x5500, symBinAddr: 0x100005B40, symSize: 0x8 }
  - { offset: 0x35C39, size: 0x8, addend: 0x0, symName: __ZNSt6thread11_State_implINS_8_InvokerISt5tupleIJZN11ThreadedSim3runEvEUlvE1_EEEEE6_M_runEv, symObjAddr: 0x5500, symBinAddr: 0x100005B40, symSize: 0x8 }
  - { offset: 0x35C5D, size: 0x8, addend: 0x0, symName: __ZNSt6thread11_State_implINS_8_InvokerISt5tupleIJZN11ThreadedSim3runEvEUlvE1_EEEEE6_M_runEv, symObjAddr: 0x5500, symBinAddr: 0x100005B40, symSize: 0x8 }
  - { offset: 0x35C86, size: 0x8, addend: 0x0, symName: __ZNSt6thread11_State_implINS_8_InvokerISt5tupleIJZN11ThreadedSim3runEvEUlvE1_EEEEE6_M_runEv, symObjAddr: 0x5500, symBinAddr: 0x100005B40, symSize: 0x8 }
  - { offset: 0x35CC7, size: 0x8, addend: 0x0, symName: __ZNSt6thread11_State_implINS_8_InvokerISt5tupleIJZN10ThreadPoolC4EmEUlvE_EEEEE6_M_runEv, symObjAddr: 0x17C4, symBinAddr: 0x100002064, symSize: 0x8 }
  - { offset: 0x35CED, size: 0x8, addend: 0x0, symName: __ZNSt6thread11_State_implINS_8_InvokerISt5tupleIJZN10ThreadPoolC4EmEUlvE_EEEEE6_M_runEv, symObjAddr: 0x17C4, symBinAddr: 0x100002064, symSize: 0x8 }
  - { offset: 0x35D10, size: 0x8, addend: 0x0, symName: __ZNSt6thread11_State_implINS_8_InvokerISt5tupleIJZN10ThreadPoolC4EmEUlvE_EEEEE6_M_runEv, symObjAddr: 0x17C4, symBinAddr: 0x100002064, symSize: 0x8 }
  - { offset: 0x35D3A, size: 0x8, addend: 0x0, symName: __ZNSt6thread11_State_implINS_8_InvokerISt5tupleIJZN10ThreadPoolC4EmEUlvE_EEEEE6_M_runEv, symObjAddr: 0x17C4, symBinAddr: 0x100002064, symSize: 0x8 }
  - { offset: 0x35D5E, size: 0x8, addend: 0x0, symName: __ZNSt6thread11_State_implINS_8_InvokerISt5tupleIJZN10ThreadPoolC4EmEUlvE_EEEEE6_M_runEv, symObjAddr: 0x17C4, symBinAddr: 0x100002064, symSize: 0x8 }
  - { offset: 0x35DBE, size: 0x8, addend: 0x0, symName: __ZNSt6thread11_State_implINS_8_InvokerISt5tupleIJZN11AsyncLoggerC4ERKNSt7__cxx1112basic_stringIcSt11char_traitsIcESaIcEEEEUlvE_EEEEED0Ev, symObjAddr: 0x1A0, symBinAddr: 0x100000A40, symSize: 0x40 }
  - { offset: 0x35DE0, size: 0x8, addend: 0x0, symName: __ZNSt6thread11_State_implINS_8_InvokerISt5tupleIJZN11AsyncLoggerC4ERKNSt7__cxx1112basic_stringIcSt11char_traitsIcESaIcEEEEUlvE_EEEEED0Ev, symObjAddr: 0x1A0, symBinAddr: 0x100000A40, symSize: 0x40 }
  - { offset: 0x35E09, size: 0x8, addend: 0x0, symName: __ZNSt6thread11_State_implINS_8_InvokerISt5tupleIJZN11AsyncLoggerC4ERKNSt7__cxx1112basic_stringIcSt11char_traitsIcESaIcEEEEUlvE_EEEEED1Ev, symObjAddr: 0x180, symBinAddr: 0x100000A20, symSize: 0x20 }
  - { offset: 0x35E57, size: 0x8, addend: 0x0, symName: __ZNSt6thread11_State_implINS_8_InvokerISt5tupleIJZN11ThreadedSim3runEvEUlvE_EEEEED0Ev, symObjAddr: 0x140, symBinAddr: 0x1000009E0, symSize: 0x40 }
  - { offset: 0x35E79, size: 0x8, addend: 0x0, symName: __ZNSt6thread11_State_implINS_8_InvokerISt5tupleIJZN11ThreadedSim3runEvEUlvE_EEEEED0Ev, symObjAddr: 0x140, symBinAddr: 0x1000009E0, symSize: 0x40 }
  - { offset: 0x35EA2, size: 0x8, addend: 0x0, symName: __ZNSt6thread11_State_implINS_8_InvokerISt5tupleIJZN11ThreadedSim3runEvEUlvE_EEEEED1Ev, symObjAddr: 0x120, symBinAddr: 0x1000009C0, symSize: 0x20 }
  - { offset: 0x35EF0, size: 0x8, addend: 0x0, symName: __ZNSt6thread11_State_implINS_8_InvokerISt5tupleIJZN11ThreadedSim3runEvEUlvE0_EEEEED0Ev, symObjAddr: 0xE0, symBinAddr: 0x100000980, symSize: 0x40 }
  - { offset: 0x35F12, size: 0x8, addend: 0x0, symName: __ZNSt6thread11_State_implINS_8_InvokerISt5tupleIJZN11ThreadedSim3runEvEUlvE0_EEEEED0Ev, symObjAddr: 0xE0, symBinAddr: 0x100000980, symSize: 0x40 }
  - { offset: 0x35F3B, size: 0x8, addend: 0x0, symName: __ZNSt6thread11_State_implINS_8_InvokerISt5tupleIJZN11ThreadedSim3runEvEUlvE0_EEEEED1Ev, symObjAddr: 0xC0, symBinAddr: 0x100000960, symSize: 0x20 }
  - { offset: 0x35F89, size: 0x8, addend: 0x0, symName: __ZNSt6thread11_State_implINS_8_InvokerISt5tupleIJZN11ThreadedSim3runEvEUlvE1_EEEEED0Ev, symObjAddr: 0x80, symBinAddr: 0x100000920, symSize: 0x40 }
  - { offset: 0x35FAB, size: 0x8, addend: 0x0, symName: __ZNSt6thread11_State_implINS_8_InvokerISt5tupleIJZN11ThreadedSim3runEvEUlvE1_EEEEED0Ev, symObjAddr: 0x80, symBinAddr: 0x100000920, symSize: 0x40 }
  - { offset: 0x35FD4, size: 0x8, addend: 0x0, symName: __ZNSt6thread11_State_implINS_8_InvokerISt5tupleIJZN11ThreadedSim3runEvEUlvE1_EEEEED1Ev, symObjAddr: 0x60, symBinAddr: 0x100000900, symSize: 0x20 }
  - { offset: 0x36022, size: 0x8, addend: 0x0, symName: __ZNSt6thread11_State_implINS_8_InvokerISt5tupleIJZN10ThreadPoolC4EmEUlvE_EEEEED0Ev, symObjAddr: 0x20, symBinAddr: 0x1000008C0, symSize: 0x40 }
  - { offset: 0x36044, size: 0x8, addend: 0x0, symName: __ZNSt6thread11_State_implINS_8_InvokerISt5tupleIJZN10ThreadPoolC4EmEUlvE_EEEEED0Ev, symObjAddr: 0x20, symBinAddr: 0x1000008C0, symSize: 0x40 }
  - { offset: 0x3606D, size: 0x8, addend: 0x0, symName: __ZNSt6thread11_State_implINS_8_InvokerISt5tupleIJZN10ThreadPoolC4EmEUlvE_EEEEED1Ev, symObjAddr: 0x4, symBinAddr: 0x1000008A4, symSize: 0x1C }
  - { offset: 0x36905, size: 0x8, addend: 0x0, symName: __ZSt16__do_uninit_copyIPK10PriceLevelPS0_ET0_T_S5_S4_, symObjAddr: 0x79C4, symBinAddr: 0x100007D84, symSize: 0x23C }
  - { offset: 0x3841B, size: 0x8, addend: 0x0, symName: __ZNSt23mersenne_twister_engineIjLm32ELm624ELm397ELm31ELj2567483615ELm11ELj4294967295ELm7ELj2636928640ELm15ELj4022730752ELm18ELj1812433253EE11_M_gen_randEv, symObjAddr: 0x73E0, symBinAddr: 0x1000077A0, symSize: 0xE0 }
  - { offset: 0x3A829, size: 0x8, addend: 0x0, symName: __ZNSt6vectorISt10unique_ptrI3BotSt14default_deleteIS1_EESaIS4_EE17_M_realloc_appendIJS4_EEEvDpOT_, symObjAddr: 0x6F44, symBinAddr: 0x100007304, symSize: 0xE8 }
  - { offset: 0x3B125, size: 0x8, addend: 0x0, symName: __ZNSt5dequeIdSaIdEE16_M_push_back_auxIJRKdEEEvDpOT_, symObjAddr: 0x6880, symBinAddr: 0x100006C40, symSize: 0x220 }
  - { offset: 0x3BBA5, size: 0x8, addend: 0x0, symName: __ZNSt6vectorI10PriceLevelSaIS0_EE17_M_realloc_insertIJS0_EEEvN9__gnu_cxx17__normal_iteratorIPS0_S2_EEDpOT_, symObjAddr: 0x7C00, symBinAddr: 0x100007FC0, symSize: 0x248 }
  - { offset: 0x3C8F6, size: 0x8, addend: 0x0, symName: __ZNSt6vectorI10PriceLevelSaIS0_EE13_M_insert_auxIS0_EEvN9__gnu_cxx17__normal_iteratorIPS0_S2_EEOT_, symObjAddr: 0x6610, symBinAddr: 0x1000069D0, symSize: 0x270 }
  - { offset: 0x3E59C, size: 0x8, addend: 0x0, symName: __ZN6RSIBotD0Ev, symObjAddr: 0x46E0, symBinAddr: 0x100004F80, symSize: 0x68 }
  - { offset: 0x3E5BE, size: 0x8, addend: 0x0, symName: __ZN6RSIBotD0Ev, symObjAddr: 0x46E0, symBinAddr: 0x100004F80, symSize: 0x68 }
  - { offset: 0x3E774, size: 0x8, addend: 0x0, symName: __ZN6RSIBotD1Ev, symObjAddr: 0x466C, symBinAddr: 0x100004F0C, symSize: 0x74 }
  - { offset: 0x3EA53, size: 0x8, addend: 0x0, symName: __ZN9RandomBotD0Ev, symObjAddr: 0xE60, symBinAddr: 0x100001700, symSize: 0x60 }
  - { offset: 0x3EA75, size: 0x8, addend: 0x0, symName: __ZN9RandomBotD0Ev, symObjAddr: 0xE60, symBinAddr: 0x100001700, symSize: 0x60 }
  - { offset: 0x3EA94, size: 0x8, addend: 0x0, symName: __ZN9RandomBotD0Ev, symObjAddr: 0xE60, symBinAddr: 0x100001700, symSize: 0x60 }
  - { offset: 0x3EC03, size: 0x8, addend: 0x0, symName: __ZN9RandomBotD1Ev, symObjAddr: 0xE20, symBinAddr: 0x1000016C0, symSize: 0x40 }
  - { offset: 0x3EC25, size: 0x8, addend: 0x0, symName: __ZN9RandomBotD1Ev, symObjAddr: 0xE20, symBinAddr: 0x1000016C0, symSize: 0x40 }
  - { offset: 0x3F1C2, size: 0x8, addend: 0x0, symName: __ZNSt11_Deque_baseI5OrderSaIS0_EE17_M_initialize_mapEm, symObjAddr: 0x64A0, symBinAddr: 0x100006860, symSize: 0x170 }
  - { offset: 0x3FCCE, size: 0x8, addend: 0x0, symName: __ZNSt6vectorISt6threadSaIS0_EE17_M_realloc_appendIJZN10ThreadPoolC4EmEUlvE_EEEvDpOT_, symObjAddr: 0x5D30, symBinAddr: 0x100006370, symSize: 0x160 }
  - { offset: 0x409F4, size: 0x8, addend: 0x0, symName: __ZNSt10unique_ptrINSt6thread6_StateESt14default_deleteIS1_EED1Ev, symObjAddr: 0x5508, symBinAddr: 0x100005B48, symSize: 0x1C }
  - { offset: 0x40A23, size: 0x8, addend: 0x0, symName: __ZNSt10unique_ptrINSt6thread6_StateESt14default_deleteIS1_EED1Ev, symObjAddr: 0x5508, symBinAddr: 0x100005B48, symSize: 0x1C }
  - { offset: 0x416FA, size: 0x8, addend: 0x0, symName: __ZSt11make_uniqueI11MomentumBotJRA8_KciEENSt8__detail9_MakeUniqIT_E15__single_objectEDpOT0_, symObjAddr: 0x48EC, symBinAddr: 0x10000518C, symSize: 0x120 }
  - { offset: 0x41C5E, size: 0x8, addend: 0x0, symName: __ZNSt10unique_ptrI3BotSt14default_deleteIS0_EED1Ev, symObjAddr: 0x48D0, symBinAddr: 0x100005170, symSize: 0x1C }
  - { offset: 0x41C8D, size: 0x8, addend: 0x0, symName: __ZNSt10unique_ptrI3BotSt14default_deleteIS0_EED1Ev, symObjAddr: 0x48D0, symBinAddr: 0x100005170, symSize: 0x1C }
  - { offset: 0x41D43, size: 0x8, addend: 0x0, symName: __ZSt11make_uniqueI9RandomBotJRA5_KcEENSt8__detail9_MakeUniqIT_E15__single_objectEDpOT0_, symObjAddr: 0x47C0, symBinAddr: 0x100005060, symSize: 0x110 }
  - { offset: 0x42263, size: 0x8, addend: 0x0, symName: __ZNSt6vectorISt10unique_ptrI3BotSt14default_deleteIS1_EESaIS4_EED1Ev, symObjAddr: 0x4748, symBinAddr: 0x100004FE8, symSize: 0x78 }
  - { offset: 0x424FD, size: 0x8, addend: 0x0, symName: __ZN6RSIBot11placeOrdersI13FlatOrderBookEEvdRT_, symObjAddr: 0x85EC, symBinAddr: 0x10000888C, symSize: 0x314 }
  - { offset: 0x43003, size: 0x8, addend: 0x0, symName: __ZN6RSIBot11placeOrdersI14LimitOrderBookEEvdRT_, symObjAddr: 0x6AA0, symBinAddr: 0x100006E60, symSize: 0x4A0 }
  - { offset: 0x4450B, size: 0x8, addend: 0x0, symName: __ZNSt11_Deque_baseIdSaIdEED2Ev, symObjAddr: 0x4600, symBinAddr: 0x100004EA0, symSize: 0x6C }
  - { offset: 0x4472D, size: 0x8, addend: 0x0, symName: __ZN9RandomBot11placeOrdersI14LimitOrderBookEEvdRT_, symObjAddr: 0x7610, symBinAddr: 0x1000079D0, symSize: 0x3B0 }
  - { offset: 0x45AE9, size: 0x8, addend: 0x0, symName: __ZNSt5dequeI5OrderSaIS0_EED1Ev, symObjAddr: 0x45C0, symBinAddr: 0x100004E60, symSize: 0x40 }
  - { offset: 0x45C61, size: 0x8, addend: 0x0, symName: __ZNSt11_Deque_baseI5OrderSaIS0_EED2Ev, symObjAddr: 0x4548, symBinAddr: 0x100004DE8, symSize: 0x78 }
  - { offset: 0x4688C, size: 0x8, addend: 0x0, symName: __ZNSt5dequeISt8functionIFvvEESaIS2_EED1Ev, symObjAddr: 0x4260, symBinAddr: 0x100004B00, symSize: 0x184 }
  - { offset: 0x47410, size: 0x8, addend: 0x0, symName: __ZN9__gnu_cxx12__to_xstringINSt7__cxx1112basic_stringIcSt11char_traitsIcESaIcEEEcEET_PFiPT0_mPKS8_PcEmSB_z, symObjAddr: 0x2120, symBinAddr: 0x1000029C0, symSize: 0x64 }
  - { offset: 0x476EE, size: 0x8, addend: 0x0, symName: _main, symObjAddr: 0x99C0, symBinAddr: 0x10000E1C0, symSize: 0x5E4 }
  - { offset: 0x48264, size: 0x8, addend: 0x0, symName: __ZN11ThreadedSimD1Ev, symObjAddr: 0x43E4, symBinAddr: 0x100004C84, symSize: 0x164 }
  - { offset: 0x48D20, size: 0x8, addend: 0x0, symName: __ZL8makeBotsv, symObjAddr: 0x7060, symBinAddr: 0x100007420, symSize: 0x380 }
  - { offset: 0x49F69, size: 0x8, addend: 0x0, symName: __ZNK6RSIBot10computeRSIEv, symObjAddr: 0x2000, symBinAddr: 0x1000028A0, symSize: 0x120 }
  - { offset: 0x4A187, size: 0x8, addend: 0x0, symName: __ZN6RSIBot13onPriceUpdateEdR13FlatOrderBooki, symObjAddr: 0x8900, symBinAddr: 0x100008BA0, symSize: 0x4 }
  - { offset: 0x4A1DC, size: 0x8, addend: 0x0, symName: __ZN6RSIBot13onPriceUpdateEdR14LimitOrderBooki, symObjAddr: 0x6F40, symBinAddr: 0x100007300, symSize: 0x4 }
  - { offset: 0x4A291, size: 0x8, addend: 0x0, symName: __ZN9RandomBot13onPriceUpdateEdR13FlatOrderBooki, symObjAddr: 0x8400, symBinAddr: 0x1000086A0, symSize: 0x1EC }
  - { offset: 0x4ABC5, size: 0x8, addend: 0x0, symName: __ZN9RandomBot13onPriceUpdateEdR14LimitOrderBooki, symObjAddr: 0x79C0, symBinAddr: 0x100007D80, symSize: 0x4 }
  - { offset: 0x4AC41, size: 0x8, addend: 0x0, symName: __ZN9RandomBotC1ENSt7__cxx1112basic_stringIcSt11char_traitsIcESaIcEEE, symObjAddr: 0x1E48, symBinAddr: 0x1000026E8, symSize: 0x1B8 }
  - { offset: 0x4B685, size: 0x8, addend: 0x0, symName: __ZN11ThreadedSim11matchAndLogER14LimitOrderBookRNSt7__cxx1112basic_stringIcSt11char_traitsIcESaIcEEEi, symObjAddr: 0x2184, symBinAddr: 0x100002A24, symSize: 0x11A8 }
  - { offset: 0x50D0F, size: 0x8, addend: 0x0, symName: __ZN11ThreadedSim11matchThreadER11AsyncLogger, symObjAddr: 0x4F84, symBinAddr: 0x1000055C4, symSize: 0x57C }
  - { offset: 0x52D1D, size: 0x8, addend: 0x0, symName: __ZN11ThreadedSim9botThreadEv, symObjAddr: 0x192C, symBinAddr: 0x1000021CC, symSize: 0x514 }
  - { offset: 0x542EC, size: 0x8, addend: 0x0, symName: __ZN11ThreadedSim9botThreadEv, symObjAddr: 0x192C, symBinAddr: 0x1000021CC, symSize: 0x514 }
  - { offset: 0x545BE, size: 0x8, addend: 0x0, symName: __ZN14LimitOrderBookD1Ev, symObjAddr: 0x17CC, symBinAddr: 0x10000206C, symSize: 0x160 }
  - { offset: 0x55596, size: 0x8, addend: 0x0, symName: __ZN11ThreadedSim3runEv, symObjAddr: 0x5524, symBinAddr: 0x100005B64, symSize: 0x80C }
  - { offset: 0x57B17, size: 0x8, addend: 0x0, symName: __ZN11ThreadedSimC1ERKNSt7__cxx1112basic_stringIcSt11char_traitsIcESaIcEEES7_RSt6vectorISt10unique_ptrI3BotSt14default_deleteISA_EESaISD_EEi, symObjAddr: 0x5E90, symBinAddr: 0x1000064D0, symSize: 0x378 }
  - { offset: 0x59238, size: 0x8, addend: 0x0, symName: __ZN11AsyncLogger10loggerLoopEv, symObjAddr: 0x1400, symBinAddr: 0x100001CA0, symSize: 0x168 }
  - { offset: 0x59CA2, size: 0x8, addend: 0x0, symName: __ZNSt6thread24_M_thread_deps_never_runEv, symObjAddr: 0x0, symBinAddr: 0x1000008A0, symSize: 0x4 }
  - { offset: 0x5A35D, size: 0x8, addend: 0x0, symName: __ZSt13__adjust_heapIN9__gnu_cxx17__normal_iteratorIPxSt6vectorIxSaIxEEEElxNS0_5__ops15_Iter_less_iterEEvT_T0_SA_T1_T2_.isra.0, symObjAddr: 0x1E0, symBinAddr: 0x100000A80, symSize: 0x110 }
  - { offset: 0x5A527, size: 0x8, addend: 0x0, symName: __ZSt16__insertion_sortIN9__gnu_cxx17__normal_iteratorIPxSt6vectorIxSaIxEEEENS0_5__ops15_Iter_less_iterEEvT_S9_T0_.isra.0, symObjAddr: 0x2F0, symBinAddr: 0x100000B90, symSize: 0xD0 }
  - { offset: 0x5A7BD, size: 0x8, addend: 0x0, symName: __ZNSt8_Rb_treeIdSt4pairIKdNSt7__cxx114listI5OrderSaIS4_EEEESt10_Select1stIS7_ESt4lessIdESaIS7_EE24_M_get_insert_unique_posERS1_.isra.0, symObjAddr: 0x3C0, symBinAddr: 0x100000C60, symSize: 0xC0 }
  - { offset: 0x5A967, size: 0x8, addend: 0x0, symName: __ZNSt15__allocated_ptrISaISt10_List_nodeI5OrderEEED1Ev.isra.0, symObjAddr: 0x8904, symBinAddr: 0x10000E19C, symSize: 0x10 }
  - { offset: 0x5A9E7, size: 0x8, addend: 0x0, symName: __ZNSt8_Rb_treeIdSt4pairIKdNSt7__cxx114listI5OrderSaIS4_EEEESt10_Select1stIS7_ESt7greaterIdESaIS7_EE24_M_get_insert_unique_posERS1_.isra.0, symObjAddr: 0x480, symBinAddr: 0x100000D20, symSize: 0xC0 }
  - { offset: 0x5AB91, size: 0x8, addend: 0x0, symName: __ZNSt10_HashtableIiSt4pairIKiP5OrderESaIS4_ENSt8__detail10_Select1stESt8equal_toIiESt4hashIiENS6_18_Mod_range_hashingENS6_20_Default_ranged_hashENS6_20_Prime_rehash_policyENS6_17_Hashtable_traitsILb0ELb0ELb1EEEE8_M_eraseESt17integral_constantIbLb1EERS1_.isra.0, symObjAddr: 0x540, symBinAddr: 0x100000DE0, symSize: 0x16C }
  - { offset: 0x5B320, size: 0x8, addend: 0x0, symName: __ZNSt12_Vector_baseIxSaIxEED2Ev.isra.0, symObjAddr: 0x6AC, symBinAddr: 0x100000F4C, symSize: 0x14 }
  - { offset: 0x5B33E, size: 0x8, addend: 0x0, symName: __ZNSt12_Vector_baseIxSaIxEED2Ev.isra.0, symObjAddr: 0x6AC, symBinAddr: 0x100000F4C, symSize: 0x14 }
  - { offset: 0x5B413, size: 0x8, addend: 0x0, symName: __ZNSt12_Vector_baseI10MarketTickSaIS0_EED2Ev.isra.0, symObjAddr: 0x6C0, symBinAddr: 0x100000F60, symSize: 0x10 }
  - { offset: 0x5B431, size: 0x8, addend: 0x0, symName: __ZNSt12_Vector_baseI10MarketTickSaIS0_EED2Ev.isra.0, symObjAddr: 0x6C0, symBinAddr: 0x100000F60, symSize: 0x10 }
  - { offset: 0x5B506, size: 0x8, addend: 0x0, symName: __ZNSt7__cxx1112basic_stringIcSt11char_traitsIcESaIcEEC1IS3_EEPKcRKS3_.isra.0, symObjAddr: 0x6D0, symBinAddr: 0x100000F70, symSize: 0xB4 }
  - { offset: 0x5B7F8, size: 0x8, addend: 0x0, symName: __ZZL14printHistogramRKSt6vectorIxSaIxEERKNSt7__cxx1112basic_stringIcSt11char_traitsIcESaIcEEEENKUldE_clEd.isra.0, symObjAddr: 0x784, symBinAddr: 0x100001024, symSize: 0x3C }
  - { offset: 0x5B826, size: 0x8, addend: 0x0, symName: __ZZL14printHistogramRKSt6vectorIxSaIxEERKNSt7__cxx1112basic_stringIcSt11char_traitsIcESaIcEEEENKUldE_clEd.isra.0, symObjAddr: 0x784, symBinAddr: 0x100001024, symSize: 0x3C }
  - { offset: 0x5B86C, size: 0x8, addend: 0x0, symName: __ZSt16__introsort_loopIN9__gnu_cxx17__normal_iteratorIPxSt6vectorIxSaIxEEEElNS0_5__ops15_Iter_less_iterEEvT_S9_T0_T1_.isra.0, symObjAddr: 0x7C0, symBinAddr: 0x100001060, symSize: 0x1D0 }
  - { offset: 0x5BE3F, size: 0x8, addend: 0x0, symName: __ZNSt7__cxx1112basic_stringIcSt11char_traitsIcESaIcEE12_M_constructIPcEEvT_S7_St20forward_iterator_tag.isra.0, symObjAddr: 0x990, symBinAddr: 0x100001230, symSize: 0xBC }
  - { offset: 0x5C0F4, size: 0x8, addend: 0x0, symName: __ZStplIcSt11char_traitsIcESaIcEENSt7__cxx1112basic_stringIT_T0_T1_EERKS8_PKS5_.isra.0, symObjAddr: 0xA4C, symBinAddr: 0x1000012EC, symSize: 0xB8 }
  - { offset: 0x5C2DE, size: 0x8, addend: 0x0, symName: __ZStplIcSt11char_traitsIcESaIcEENSt7__cxx1112basic_stringIT_T0_T1_EEPKS5_RKS8_.isra.0, symObjAddr: 0xC00, symBinAddr: 0x1000014A0, symSize: 0xE0 }
  - { offset: 0x5C53C, size: 0x8, addend: 0x0, symName: __ZNSt8_Rb_treeIdSt4pairIKdNSt7__cxx114listI5OrderSaIS4_EEEESt10_Select1stIS7_ESt4lessIdESaIS7_EE8_M_eraseEPSt13_Rb_tree_nodeIS7_E.isra.0, symObjAddr: 0xCE0, symBinAddr: 0x100001580, symSize: 0xA0 }
  - { offset: 0x5C9F5, size: 0x8, addend: 0x0, symName: __ZNSt8_Rb_treeIdSt4pairIKdNSt7__cxx114listI5OrderSaIS4_EEEESt10_Select1stIS7_ESt7greaterIdESaIS7_EE8_M_eraseEPSt13_Rb_tree_nodeIS7_E.isra.0, symObjAddr: 0xD80, symBinAddr: 0x100001620, symSize: 0xA0 }
  - { offset: 0x5CEAE, size: 0x8, addend: 0x0, symName: __ZNSt5dequeI5OrderSaIS0_EE19_M_destroy_data_auxESt15_Deque_iteratorIS0_RS0_PS0_ES6_.isra.0, symObjAddr: 0xEC0, symBinAddr: 0x100001760, symSize: 0x164 }
  - { offset: 0x5D71E, size: 0x8, addend: 0x0, symName: __ZNSt8_Rb_treeIdSt4pairIKdNSt7__cxx114listI5OrderSaIS4_EEEESt10_Select1stIS7_ESt4lessIdESaIS7_EE22_M_emplace_hint_uniqueIJRKSt21piecewise_construct_tSt5tupleIJRS1_EESI_IJEEEEESt17_Rb_tree_iteratorIS7_ESt23_Rb_tree_const_iteratorIS7_EDpOT_.isra.0, symObjAddr: 0x1024, symBinAddr: 0x1000018C4, symSize: 0x1EC }
  - { offset: 0x5DD8C, size: 0x8, addend: 0x0, symName: __ZNSt8_Rb_treeIdSt4pairIKdNSt7__cxx114listI5OrderSaIS4_EEEESt10_Select1stIS7_ESt7greaterIdESaIS7_EE22_M_emplace_hint_uniqueIJRKSt21piecewise_construct_tSt5tupleIJRS1_EESI_IJEEEEESt17_Rb_tree_iteratorIS7_ESt23_Rb_tree_const_iteratorIS7_EDpOT_.isra.0, symObjAddr: 0x1210, symBinAddr: 0x100001AB0, symSize: 0x1F0 }
  - { offset: 0x5E3FA, size: 0x8, addend: 0x0, symName: __ZL17runSingleThreadedRKNSt7__cxx1112basic_stringIcSt11char_traitsIcESaIcEEES6_RSt6vectorISt10unique_ptrI3BotSt14default_deleteIS9_EESaISC_EERdi.constprop.0, symObjAddr: 0x332C, symBinAddr: 0x100003BCC, symSize: 0xF34 }
  - { offset: 0x61729, size: 0x8, addend: 0x0, symName: __ZN14LimitOrderBook8addOrderERK5Order, symObjAddr: 0x4C6C, symBinAddr: 0x1000052AC, symSize: 0x318 }
  - { offset: 0x626A0, size: 0x8, addend: 0x0, symName: __ZNSt6vectorISt10unique_ptrI3BotSt14default_deleteIS1_EESaIS4_EE12emplace_backIJS4_EEERS4_DpOT_.isra.0, symObjAddr: 0x702C, symBinAddr: 0x1000073EC, symSize: 0x34 }
  - { offset: 0x6282A, size: 0x8, addend: 0x0, symName: __ZNSt23mersenne_twister_engineIjLm32ELm624ELm397ELm31ELj2567483615ELm11ELj4294967295ELm7ELj2636928640ELm15ELj4022730752ELm18ELj1812433253EEclEv, symObjAddr: 0x74C0, symBinAddr: 0x100007880, symSize: 0x64 }
  - { offset: 0x62857, size: 0x8, addend: 0x0, symName: __ZNSt24uniform_int_distributionIiEclISt23mersenne_twister_engineIjLm32ELm624ELm397ELm31ELj2567483615ELm11ELj4294967295ELm7ELj2636928640ELm15ELj4022730752ELm18ELj1812433253EEEEiRT_RKNS0_10param_typeE.isra.0, symObjAddr: 0x7524, symBinAddr: 0x1000078E4, symSize: 0xEC }
  - { offset: 0x62987, size: 0x8, addend: 0x0, symName: __ZN13FlatOrderBook8addOrderERK5Order.part.0, symObjAddr: 0x7F80, symBinAddr: 0x100008220, symSize: 0x240 }
  - { offset: 0x631D1, size: 0x8, addend: 0x0, symName: __ZN13FlatOrderBook8addOrderERK5Order, symObjAddr: 0x81C0, symBinAddr: 0x100008460, symSize: 0x240 }
  - { offset: 0x63A2D, size: 0x8, addend: 0x0, symName: __ZNKSt5ctypeIcE8do_widenEc, symObjAddr: 0x0, symBinAddr: 0x100008C00, symSize: 0x8 }
  - { offset: 0x6B326, size: 0x8, addend: 0x0, symName: __ZN10MarketData4nextEv, symObjAddr: 0x20, symBinAddr: 0x100008C20, symSize: 0x20 }
  - { offset: 0x6B354, size: 0x8, addend: 0x0, symName: __ZN10MarketData7hasNextEv, symObjAddr: 0x8, symBinAddr: 0x100008C08, symSize: 0x18 }
  - { offset: 0x6B37A, size: 0x8, addend: 0x0, symName: __ZN10MarketData7hasNextEv, symObjAddr: 0x8, symBinAddr: 0x100008C08, symSize: 0x18 }
  - { offset: 0x6B39E, size: 0x8, addend: 0x0, symName: __ZN10MarketData7loadCSVERKNSt7__cxx1112basic_stringIcSt11char_traitsIcESaIcEEE, symObjAddr: 0x40, symBinAddr: 0x100008C40, symSize: 0x934 }
  - { offset: 0x6CC8D, size: 0x8, addend: 0x0, symName: __ZNKSt5ctypeIcE8do_widenEc, symObjAddr: 0x0, symBinAddr: 0x100008C00, symSize: 0x8 }
  - { offset: 0x79524, size: 0x8, addend: 0x0, symName: __ZStL8__ioinit, symObjAddr: 0x8D404, symBinAddr: 0x100018005, symSize: 0x0 }
  - { offset: 0x7A130, size: 0x8, addend: 0x0, symName: __GLOBAL__sub_I_matching_engine.cpp, symObjAddr: 0x16A0, symBinAddr: 0x10000A9A0, symSize: 0x3C }
  - { offset: 0x7B280, size: 0x8, addend: 0x0, symName: __Z11matchOrdersR14LimitOrderBookRSt6vectorISt10unique_ptrI3BotSt14default_deleteIS3_EESaIS6_EERNSt7__cxx1112basic_stringIcSt11char_traitsIcESaIcEEEi, symObjAddr: 0x308, symBinAddr: 0x1000097A8, symSize: 0x11DC }
  - { offset: 0x8083B, size: 0x8, addend: 0x0, symName: __ZL7findBotRSt6vectorISt10unique_ptrI3BotSt14default_deleteIS1_EESaIS4_EERKNSt7__cxx1112basic_stringIcSt11char_traitsIcESaIcEEE, symObjAddr: 0x0, symBinAddr: 0x100009580, symSize: 0xA0 }
  - { offset: 0x80D03, size: 0x8, addend: 0x0, symName: __ZNSt10_HashtableIiSt4pairIKiP5OrderESaIS4_ENSt8__detail10_Select1stESt8equal_toIiESt4hashIiENS6_18_Mod_range_hashingENS6_20_Default_ranged_hashENS6_20_Prime_rehash_policyENS6_17_Hashtable_traitsILb0ELb0ELb1EEEE8_M_eraseESt17integral_constantIbLb1EERS1_.isra.0, symObjAddr: 0xA0, symBinAddr: 0x100009620, symSize: 0x16C }
  - { offset: 0x8D993, size: 0x8, addend: 0x0, symName: __ZStL8__ioinit, symObjAddr: 0x82772, symBinAddr: 0x100018006, symSize: 0x0 }
  - { offset: 0x8DCDF, size: 0x8, addend: 0x0, symName: __GLOBAL__sub_I_flat_matching_engine.cpp, symObjAddr: 0x1A20, symBinAddr: 0x10000C140, symSize: 0x3C }
  - { offset: 0x8F114, size: 0x8, addend: 0x0, symName: __Z15matchOrdersFlatR13FlatOrderBookRSt6vectorISt10unique_ptrI3BotSt14default_deleteIS3_EESaIS6_EERNSt7__cxx1112basic_stringIcSt11char_traitsIcESaIcEEEi, symObjAddr: 0x620, symBinAddr: 0x10000AF00, symSize: 0x1240 }
  - { offset: 0x93F96, size: 0x8, addend: 0x0, symName: __ZL7findBotRSt6vectorISt10unique_ptrI3BotSt14default_deleteIS1_EESaIS4_EERKNSt7__cxx1112basic_stringIcSt11char_traitsIcESaIcEEE, symObjAddr: 0x0, symBinAddr: 0x10000A9E0, symSize: 0xA0 }
  - { offset: 0x944D9, size: 0x8, addend: 0x0, symName: __ZNSt10_HashtableIiSt4pairIKiP5OrderESaIS4_ENSt8__detail10_Select1stESt8equal_toIiESt4hashIiENS6_18_Mod_range_hashingENS6_20_Default_ranged_hashENS6_20_Prime_rehash_policyENS6_17_Hashtable_traitsILb0ELb0ELb1EEEE8_M_eraseESt17integral_constantIbLb1EERS1_.isra.0, symObjAddr: 0xA0, symBinAddr: 0x10000AA80, symSize: 0x16C }
  - { offset: 0x94C68, size: 0x8, addend: 0x0, symName: __ZNSt5dequeI5OrderSaIS0_EE19_M_destroy_data_auxESt15_Deque_iteratorIS0_RS0_PS0_ES6_.isra.0, symObjAddr: 0x20C, symBinAddr: 0x10000ABEC, symSize: 0x158 }
  - { offset: 0x954D8, size: 0x8, addend: 0x0, symName: __ZNSt6vectorI10PriceLevelSaIS0_EE8_M_eraseEN9__gnu_cxx17__normal_iteratorIPS0_S2_EE.isra.0, symObjAddr: 0x364, symBinAddr: 0x10000AD44, symSize: 0x1BC }
  - { offset: 0xA3057, size: 0x8, addend: 0x0, symName: __ZStL8__ioinit, symObjAddr: 0x6E040, symBinAddr: 0x100018007, symSize: 0x0 }
  - { offset: 0xA3EA3, size: 0x8, addend: 0x0, symName: __GLOBAL__sub_I_bot.cpp, symObjAddr: 0xA0, symBinAddr: 0x10000C220, symSize: 0x3C }
  - { offset: 0xA3F00, size: 0x8, addend: 0x0, symName: __ZN3BotD0Ev, symObjAddr: 0x8, symBinAddr: 0x10000C188, symSize: 0x58 }
  - { offset: 0xA4090, size: 0x8, addend: 0x0, symName: __ZN3BotD1Ev, symObjAddr: 0x60, symBinAddr: 0x10000C1E0, symSize: 0x30 }
  - { offset: 0xA431F, size: 0x8, addend: 0x0, symName: __ZN3Bot13onPriceUpdateEdR14LimitOrderBooki, symObjAddr: 0x0, symBinAddr: 0x10000C180, symSize: 0x4 }
  - { offset: 0xB479A, size: 0x8, addend: 0x0, symName: __ZStL8__ioinit, symObjAddr: 0xBAD26, symBinAddr: 0x100018008, symSize: 0x0 }
  - { offset: 0xB59C4, size: 0x8, addend: 0x0, symName: __GLOBAL__sub_I_momentum_bot.cpp, symObjAddr: 0x2C60, symBinAddr: 0x10000E160, symSize: 0x3C }
  - { offset: 0xB5A24, size: 0x8, addend: 0x0, symName: __ZN11MomentumBotD0Ev, symObjAddr: 0xC10, symBinAddr: 0x10000CD50, symSize: 0x70 }
  - { offset: 0xB5A46, size: 0x8, addend: 0x0, symName: __ZN11MomentumBotD0Ev, symObjAddr: 0xC10, symBinAddr: 0x10000CD50, symSize: 0x70 }
  - { offset: 0xB5BFC, size: 0x8, addend: 0x0, symName: __ZN11MomentumBotD1Ev, symObjAddr: 0xBAC, symBinAddr: 0x10000CCEC, symSize: 0x64 }
  - { offset: 0xB8687, size: 0x8, addend: 0x0, symName: __ZNSt6vectorI10PriceLevelSaIS0_EE14_M_insert_rvalEN9__gnu_cxx17__normal_iteratorIPKS0_S2_EEOS0_, symObjAddr: 0x2280, symBinAddr: 0x10000D940, symSize: 0x12C }
  - { offset: 0xB8B21, size: 0x8, addend: 0x0, symName: __ZNSt5dequeI5OrderSaIS0_EE16_M_push_back_auxIJRKS0_EEEvDpOT_, symObjAddr: 0xEE0, symBinAddr: 0x10000D020, symSize: 0x2A0 }
  - { offset: 0xB95AA, size: 0x8, addend: 0x0, symName: __ZNSt8__detail9_Map_baseIiSt4pairIKiP5OrderESaIS5_ENS_10_Select1stESt8equal_toIiESt4hashIiENS_18_Mod_range_hashingENS_20_Default_ranged_hashENS_20_Prime_rehash_policyENS_17_Hashtable_traitsILb0ELb0ELb1EEELb1EEixERS2_, symObjAddr: 0xC80, symBinAddr: 0x10000CDC0, symSize: 0x260 }
  - { offset: 0xBA4D5, size: 0x8, addend: 0x0, symName: __ZN11MomentumBot11placeOrdersI13FlatOrderBookEEvdRT_, symObjAddr: 0x23AC, symBinAddr: 0x10000DA6C, symSize: 0x6D4 }
  - { offset: 0xBC0B4, size: 0x8, addend: 0x0, symName: __ZN11MomentumBot11placeOrdersI14LimitOrderBookEEvdRT_, symObjAddr: 0x1780, symBinAddr: 0x10000D2C0, symSize: 0x660 }
  - { offset: 0xBE431, size: 0x8, addend: 0x0, symName: __ZN11MomentumBot13onPriceUpdateEdR13FlatOrderBooki, symObjAddr: 0x2A80, symBinAddr: 0x10000E140, symSize: 0x4 }
  - { offset: 0xBE48F, size: 0x8, addend: 0x0, symName: __ZN11MomentumBot13onPriceUpdateEdR14LimitOrderBooki, symObjAddr: 0x1DE0, symBinAddr: 0x10000D920, symSize: 0x4 }
  - { offset: 0xBE519, size: 0x8, addend: 0x0, symName: __ZNK11MomentumBot10earlierAvgEv, symObjAddr: 0x9B0, symBinAddr: 0x10000CC10, symSize: 0x78 }
  - { offset: 0xBE636, size: 0x8, addend: 0x0, symName: __ZNK11MomentumBot9recentAvgEv, symObjAddr: 0x928, symBinAddr: 0x10000CB88, symSize: 0x88 }
  - { offset: 0xBE75F, size: 0x8, addend: 0x0, symName: __ZN11MomentumBotC1ENSt7__cxx1112basic_stringIcSt11char_traitsIcESaIcEEEi, symObjAddr: 0x784, symBinAddr: 0x10000C9E4, symSize: 0x1A0 }
  - { offset: 0xBF17E, size: 0x8, addend: 0x0, symName: __ZNSt8_Rb_treeIdSt4pairIKdNSt7__cxx114listI5OrderSaIS4_EEEESt10_Select1stIS7_ESt4lessIdESaIS7_EE24_M_get_insert_unique_posERS1_.isra.0, symObjAddr: 0x0, symBinAddr: 0x10000C260, symSize: 0xC0 }
  - { offset: 0xBF328, size: 0x8, addend: 0x0, symName: __ZNSt8_Rb_treeIdSt4pairIKdNSt7__cxx114listI5OrderSaIS4_EEEESt10_Select1stIS7_ESt7greaterIdESaIS7_EE24_M_get_insert_unique_posERS1_.isra.0, symObjAddr: 0xC0, symBinAddr: 0x10000C320, symSize: 0xC0 }
  - { offset: 0xBF4D2, size: 0x8, addend: 0x0, symName: __ZNSt7__cxx1112basic_stringIcSt11char_traitsIcESaIcEE12_M_constructIPcEEvT_S7_St20forward_iterator_tag.isra.0, symObjAddr: 0x180, symBinAddr: 0x10000C3E0, symSize: 0xC0 }
  - { offset: 0xBF787, size: 0x8, addend: 0x0, symName: __ZNSt8_Rb_treeIdSt4pairIKdNSt7__cxx114listI5OrderSaIS4_EEEESt10_Select1stIS7_ESt7greaterIdESaIS7_EE22_M_emplace_hint_uniqueIJRKSt21piecewise_construct_tSt5tupleIJRS1_EESI_IJEEEEESt17_Rb_tree_iteratorIS7_ESt23_Rb_tree_const_iteratorIS7_EDpOT_.isra.0, symObjAddr: 0x240, symBinAddr: 0x10000C4A0, symSize: 0x1EC }
  - { offset: 0xBFDF5, size: 0x8, addend: 0x0, symName: __ZNSt8_Rb_treeIdSt4pairIKdNSt7__cxx114listI5OrderSaIS4_EEEESt10_Select1stIS7_ESt4lessIdESaIS7_EE22_M_emplace_hint_uniqueIJRKSt21piecewise_construct_tSt5tupleIJRS1_EESI_IJEEEEESt17_Rb_tree_iteratorIS7_ESt23_Rb_tree_const_iteratorIS7_EDpOT_.isra.0, symObjAddr: 0x42C, symBinAddr: 0x10000C68C, symSize: 0x1F4 }
  - { offset: 0xC0463, size: 0x8, addend: 0x0, symName: __ZNSt5dequeI5OrderSaIS0_EE19_M_destroy_data_auxESt15_Deque_iteratorIS0_RS0_PS0_ES6_.isra.0, symObjAddr: 0x620, symBinAddr: 0x10000C880, symSize: 0x164 }
  - { offset: 0xC0CD7, size: 0x8, addend: 0x0, symName: __ZNK11MomentumBot9shouldBuyEv, symObjAddr: 0xA28, symBinAddr: 0x10000CC88, symSize: 0x38 }
  - { offset: 0xC0CFE, size: 0x8, addend: 0x0, symName: __ZNK11MomentumBot10shouldSellEv, symObjAddr: 0xA60, symBinAddr: 0x10000CCC0, symSize: 0x2C }
...
